target datalayout = "e-m:e-p270:32:32-p271:32:32-p272:64:64-i64:64-i128:128-f80:128-n8:16:32:64-S128"
target triple = "x86_64-pc-linux-gnu"

%struct.nameData = type { [64 x i8] }
%struct.HeapTupleData = type { i32, %struct.ItemPointerData, i32, ptr }
%struct.ItemPointerData = type { %struct.BlockIdData, i16 }
%struct.BlockIdData = type { i16, i16 }
%struct.HeapTupleHeaderData = type { %union.anon, %struct.ItemPointerData, i16, i16, i8, [0 x i8] }
%union.anon = type { %struct.HeapTupleFields }
%struct.HeapTupleFields = type { i32, i32, %union.anon.0 }
%union.anon.0 = type { i32 }
%struct.FormData_pg_namespace = type { i32, %struct.nameData, i32 }
%struct.RelationData = type { %struct.RelFileLocator, ptr, i32, i32, i8, i8, i8, i8, i8, i32, i32, i32, i32, ptr, ptr, i32, %struct.LockInfoData, ptr, ptr, ptr, ptr, ptr, i8, ptr, ptr, ptr, ptr, ptr, ptr, i32, ptr, i8, ptr, ptr, i32, i8, i32, ptr, i8, ptr, ptr, ptr, ptr, ptr, ptr, ptr, i32, ptr, ptr, ptr, ptr, ptr, ptr, ptr, ptr, ptr, ptr, ptr, ptr, ptr, ptr, ptr, ptr, ptr, ptr, ptr, i32, i8, ptr }
%struct.RelFileLocator = type { i32, i32, i32 }
%struct.LockInfoData = type { %struct.LockRelId }
%struct.LockRelId = type { i32, i32 }

@MyDatabaseId = external global i32, align 4
@object_access_hook = external global ptr, align 8

; Function Attrs: inlinehint nounwind uwtable
define internal i64 @PointerGetDatum(ptr noundef %0) #3 {
  %2 = alloca ptr, align 8
  store ptr %0, ptr %2, align 8
  %3 = load ptr, ptr %2, align 8
  %4 = ptrtoint ptr %3 to i64
  ret i64 %4
}

; Function Attrs: inlinehint nounwind uwtable
define internal ptr @DatumGetPointer(i64 noundef %0) #3 {
  %2 = alloca i64, align 8
  store i64 %0, ptr %2, align 8
  %3 = load i64, ptr %2, align 8
  %4 = inttoptr i64 %3 to ptr
  ret ptr %4
}

; Function Attrs: inlinehint nounwind uwtable
define internal i64 @ObjectIdGetDatum(i32 noundef %0) #3 {
  %2 = alloca i32, align 4
  store i32 %0, ptr %2, align 4
  %3 = load i32, ptr %2, align 4
  %4 = zext i32 %3 to i64
  ret i64 %4
}

; Function Attrs: inlinehint nounwind uwtable
define internal ptr @GETSTRUCT(ptr noundef %0) #3 {
  %2 = alloca ptr, align 8
  store ptr %0, ptr %2, align 8
  %3 = load ptr, ptr %2, align 8
  %4 = getelementptr inbounds nuw %struct.HeapTupleData, ptr %3, i32 0, i32 3
  %5 = load ptr, ptr %4, align 8
  %6 = load ptr, ptr %2, align 8
  %7 = getelementptr inbounds nuw %struct.HeapTupleData, ptr %6, i32 0, i32 3
  %8 = load ptr, ptr %7, align 8
  %9 = getelementptr inbounds nuw %struct.HeapTupleHeaderData, ptr %8, i32 0, i32 4
  %10 = load i8, ptr %9, align 2
  %11 = zext i8 %10 to i32
  %12 = sext i32 %11 to i64
  %13 = getelementptr inbounds i8, ptr %5, i64 %12
  ret ptr %13
}

; Function Attrs: nounwind uwtable
define internal void @AlterSchemaOwner_internal(ptr noundef %0, ptr noundef %1, i32 noundef %2) #0 {
  %4 = alloca ptr, align 8
  %5 = alloca ptr, align 8
  %6 = alloca i32, align 4
  %7 = alloca ptr, align 8
  %8 = alloca [4 x i64], align 16
  %9 = alloca [4 x i8], align 1
  %10 = alloca [4 x i8], align 1
  %11 = alloca ptr, align 8
  %12 = alloca i64, align 8
  %13 = alloca i8, align 1
  %14 = alloca ptr, align 8
  %15 = alloca i32, align 4
  store ptr %0, ptr %4, align 8
  store ptr %1, ptr %5, align 8
  store i32 %2, ptr %6, align 4
  call void @llvm.lifetime.start.p0(i64 8, ptr %7) #7
  %16 = load ptr, ptr %4, align 8
  %17 = call ptr @GETSTRUCT(ptr noundef %16)
  store ptr %17, ptr %7, align 8
  %18 = load ptr, ptr %7, align 8
  %19 = getelementptr inbounds nuw %struct.FormData_pg_namespace, ptr %18, i32 0, i32 2
  %20 = load i32, ptr %19, align 4
  %21 = load i32, ptr %6, align 4
  %22 = icmp ne i32 %20, %21
  br i1 %22, label %23, label %88

23:                                               ; preds = %3
  call void @llvm.lifetime.start.p0(i64 32, ptr %8) #7
  call void @llvm.lifetime.start.p0(i64 4, ptr %9) #7
  call void @llvm.lifetime.start.p0(i64 4, ptr %10) #7
  call void @llvm.lifetime.start.p0(i64 8, ptr %11) #7
  call void @llvm.lifetime.start.p0(i64 8, ptr %12) #7
  call void @llvm.lifetime.start.p0(i64 1, ptr %13) #7
  call void @llvm.lifetime.start.p0(i64 8, ptr %14) #7
  call void @llvm.lifetime.start.p0(i64 4, ptr %15) #7
  %24 = load ptr, ptr %7, align 8
  %25 = getelementptr inbounds nuw %struct.FormData_pg_namespace, ptr %24, i32 0, i32 0
  %26 = load i32, ptr %25, align 4
  %27 = call i32 @GetUserId()
  %28 = call zeroext i1 @object_ownercheck(i32 noundef 2615, i32 noundef %26, i32 noundef %27)
  br i1 %28, label %34, label %29

29:                                               ; preds = %23
  %30 = load ptr, ptr %7, align 8
  %31 = getelementptr inbounds nuw %struct.FormData_pg_namespace, ptr %30, i32 0, i32 1
  %32 = getelementptr inbounds nuw %struct.nameData, ptr %31, i32 0, i32 0
  %33 = getelementptr inbounds [64 x i8], ptr %32, i64 0, i64 0
  call void @aclcheck_error(i32 noundef 2, i32 noundef 36, ptr noundef %33)
  br label %34

34:                                               ; preds = %29, %23
  %35 = call i32 @GetUserId()
  %36 = load i32, ptr %6, align 4
  call void @check_can_set_role(i32 noundef %35, i32 noundef %36)
  %37 = load i32, ptr @MyDatabaseId, align 4
  %38 = call i32 @GetUserId()
  %39 = call i32 @object_aclcheck(i32 noundef 1262, i32 noundef %37, i32 noundef %38, i64 noundef 512)
  store i32 %39, ptr %15, align 4
  %40 = load i32, ptr %15, align 4
  %41 = icmp ne i32 %40, 0
  br i1 %41, label %42, label %46

42:                                               ; preds = %34
  %43 = load i32, ptr %15, align 4
  %44 = load i32, ptr @MyDatabaseId, align 4
  %45 = call ptr @get_database_name(i32 noundef %44)
  call void @aclcheck_error(i32 noundef %43, i32 noundef 9, ptr noundef %45)
  br label %46

46:                                               ; preds = %42, %34
  %47 = getelementptr inbounds [4 x i8], ptr %9, i64 0, i64 0
  call void @llvm.memset.p0.i64(ptr align 1 %47, i8 0, i64 4, i1 false)
  %48 = getelementptr inbounds [4 x i8], ptr %10, i64 0, i64 0
  call void @llvm.memset.p0.i64(ptr align 1 %48, i8 0, i64 4, i1 false)
  %49 = getelementptr inbounds [4 x i8], ptr %10, i64 0, i64 2
  store i8 1, ptr %49, align 1
  %50 = load i32, ptr %6, align 4
  %51 = call i64 @ObjectIdGetDatum(i32 noundef %50)
  %52 = getelementptr inbounds [4 x i64], ptr %8, i64 0, i64 2
  store i64 %51, ptr %52, align 16
  %53 = load ptr, ptr %4, align 8
  %54 = call i64 @SysCacheGetAttr(i32 noundef 37, ptr noundef %53, i16 noundef signext 4, ptr noundef %13)
  store i64 %54, ptr %12, align 8
  %55 = load i8, ptr %13, align 1, !range !4, !noundef !5
  %56 = trunc i8 %55 to i1
  br i1 %56, label %70, label %57

57:                                               ; preds = %46
  %58 = load i64, ptr %12, align 8
  %59 = call ptr @DatumGetPointer(i64 noundef %58)
  %60 = call ptr @pg_detoast_datum(ptr noundef %59)
  %61 = load ptr, ptr %7, align 8
  %62 = getelementptr inbounds nuw %struct.FormData_pg_namespace, ptr %61, i32 0, i32 2
  %63 = load i32, ptr %62, align 4
  %64 = load i32, ptr %6, align 4
  %65 = call ptr @aclnewowner(ptr noundef %60, i32 noundef %63, i32 noundef %64)
  store ptr %65, ptr %11, align 8
  %66 = getelementptr inbounds [4 x i8], ptr %10, i64 0, i64 3
  store i8 1, ptr %66, align 1
  %67 = load ptr, ptr %11, align 8
  %68 = call i64 @PointerGetDatum(ptr noundef %67)
  %69 = getelementptr inbounds [4 x i64], ptr %8, i64 0, i64 3
  store i64 %68, ptr %69, align 8
  br label %70

70:                                               ; preds = %57, %46
  %71 = load ptr, ptr %4, align 8
  %72 = load ptr, ptr %5, align 8
  %73 = getelementptr inbounds nuw %struct.RelationData, ptr %72, i32 0, i32 14
  %74 = load ptr, ptr %73, align 8
  %75 = getelementptr inbounds [4 x i64], ptr %8, i64 0, i64 0
  %76 = getelementptr inbounds [4 x i8], ptr %9, i64 0, i64 0
  %77 = getelementptr inbounds [4 x i8], ptr %10, i64 0, i64 0
  %78 = call ptr @heap_modify_tuple(ptr noundef %71, ptr noundef %74, ptr noundef %75, ptr noundef %76, ptr noundef %77)
  store ptr %78, ptr %14, align 8
  %79 = load ptr, ptr %5, align 8
  %80 = load ptr, ptr %14, align 8
  %81 = getelementptr inbounds nuw %struct.HeapTupleData, ptr %80, i32 0, i32 1
  %82 = load ptr, ptr %14, align 8
  call void @CatalogTupleUpdate(ptr noundef %79, ptr noundef %81, ptr noundef %82)
  %83 = load ptr, ptr %14, align 8
  call void @heap_freetuple(ptr noundef %83)
  %84 = load ptr, ptr %7, align 8
  %85 = getelementptr inbounds nuw %struct.FormData_pg_namespace, ptr %84, i32 0, i32 0
  %86 = load i32, ptr %85, align 4
  %87 = load i32, ptr %6, align 4
  call void @changeDependencyOnOwner(i32 noundef 2615, i32 noundef %86, i32 noundef %87)
  call void @llvm.lifetime.end.p0(i64 4, ptr %15) #7
  call void @llvm.lifetime.end.p0(i64 8, ptr %14) #7
  call void @llvm.lifetime.end.p0(i64 1, ptr %13) #7
  call void @llvm.lifetime.end.p0(i64 8, ptr %12) #7
  call void @llvm.lifetime.end.p0(i64 8, ptr %11) #7
  call void @llvm.lifetime.end.p0(i64 4, ptr %10) #7
  call void @llvm.lifetime.end.p0(i64 4, ptr %9) #7
  call void @llvm.lifetime.end.p0(i64 32, ptr %8) #7
  br label %88

88:                                               ; preds = %70, %3
  br label %89

89:                                               ; preds = %88
  %90 = load ptr, ptr @object_access_hook, align 8
  %91 = icmp ne ptr %90, null
  br i1 %91, label %92, label %96

92:                                               ; preds = %89
  %93 = load ptr, ptr %7, align 8
  %94 = getelementptr inbounds nuw %struct.FormData_pg_namespace, ptr %93, i32 0, i32 0
  %95 = load i32, ptr %94, align 4
  call void @RunObjectPostAlterHook(i32 noundef 2615, i32 noundef %95, i32 noundef 0, i32 noundef 0, i1 noundef zeroext false)
  br label %96

96:                                               ; preds = %92, %89
  br label %97

97:                                               ; preds = %96
  br label %98

98:                                               ; preds = %97
  call void @llvm.lifetime.end.p0(i64 8, ptr %7) #7
  ret void
}