; Function Attrs: nounwind uwtable
define internal fastcc void @AlterSchemaOwner_internal(ptr noundef nonnull %0, ptr noundef %1, i32 noundef %2) unnamed_addr #0 {
  %4 = alloca [4 x i64], align 16
  %5 = alloca [4 x i8], align 4
  %6 = alloca [4 x i8], align 4
  %7 = alloca i8, align 1
  %8 = getelementptr i8, ptr %0, i64 16
  %.val = load ptr, ptr %8, align 8
  %9 = getelementptr inbounds nuw i8, ptr %.val, i64 22
  %10 = load i8, ptr %9, align 2
  %11 = zext i8 %10 to i64
  %12 = getelementptr inbounds nuw i8, ptr %.val, i64 %11
  %13 = getelementptr inbounds nuw i8, ptr %12, i64 68
  %14 = load i32, ptr %13, align 4
  %.not = icmp eq i32 %14, %2
  br i1 %.not, label %49, label %15

15:                                               ; preds = %3
  call void @llvm.lifetime.start.p0(i64 32, ptr nonnull %4) #5
  call void @llvm.lifetime.start.p0(i64 4, ptr nonnull %5) #5
  call void @llvm.lifetime.start.p0(i64 4, ptr nonnull %6) #5
  call void @llvm.lifetime.start.p0(i64 1, ptr nonnull %7) #5
  %16 = load i32, ptr %12, align 4
  %17 = tail call i32 @GetUserId() #5
  %18 = tail call zeroext i1 @object_ownercheck(i32 noundef 2615, i32 noundef %16, i32 noundef %17) #5
  br i1 %18, label %21, label %19

19:                                               ; preds = %15
  %20 = getelementptr inbounds nuw i8, ptr %12, i64 4
  tail call void @aclcheck_error(i32 noundef 2, i32 noundef 36, ptr noundef nonnull %20) #5
  br label %21

21:                                               ; preds = %19, %15
  %22 = tail call i32 @GetUserId() #5
  tail call void @check_can_set_role(i32 noundef %22, i32 noundef %2) #5
  %23 = load i32, ptr @MyDatabaseId, align 4
  %24 = tail call i32 @GetUserId() #5
  %25 = tail call i32 @object_aclcheck(i32 noundef 1262, i32 noundef %23, i32 noundef %24, i64 noundef 512) #5
  %.not23 = icmp eq i32 %25, 0
  br i1 %.not23, label %29, label %26

26:                                               ; preds = %21
  %27 = load i32, ptr @MyDatabaseId, align 4
  %28 = tail call ptr @get_database_name(i32 noundef %27) #5
  tail call void @aclcheck_error(i32 noundef %25, i32 noundef 9, ptr noundef %28) #5
  br label %29

29:                                               ; preds = %26, %21
  store i32 0, ptr %5, align 4
  store i32 65536, ptr %6, align 4
  %30 = zext i32 %2 to i64
  %31 = getelementptr inbounds nuw i8, ptr %4, i64 16
  store i64 %30, ptr %31, align 16
  %32 = call i64 @SysCacheGetAttr(i32 noundef 37, ptr noundef nonnull %0, i16 noundef signext 4, ptr noundef nonnull %7) #5
  %33 = load i8, ptr %7, align 1, !range !4, !noundef !5
  %34 = trunc nuw i8 %33 to i1
  br i1 %34, label %43, label %35

35:                                               ; preds = %29
  %36 = inttoptr i64 %32 to ptr
  %37 = call ptr @pg_detoast_datum(ptr noundef %36) #5
  %38 = load i32, ptr %13, align 4
  %39 = call ptr @aclnewowner(ptr noundef %37, i32 noundef %38, i32 noundef %2) #5
  %40 = getelementptr inbounds nuw i8, ptr %6, i64 3
  store i8 1, ptr %40, align 1
  %41 = ptrtoint ptr %39 to i64
  %42 = getelementptr inbounds nuw i8, ptr %4, i64 24
  store i64 %41, ptr %42, align 8
  br label %43

43:                                               ; preds = %35, %29
  %44 = getelementptr inbounds nuw i8, ptr %1, i64 64
  %45 = load ptr, ptr %44, align 8
  %46 = call ptr @heap_modify_tuple(ptr noundef nonnull %0, ptr noundef %45, ptr noundef nonnull %4, ptr noundef nonnull %5, ptr noundef nonnull %6) #5
  %47 = getelementptr inbounds nuw i8, ptr %46, i64 4
  call void @CatalogTupleUpdate(ptr noundef %1, ptr noundef nonnull %47, ptr noundef %46) #5
  call void @heap_freetuple(ptr noundef %46) #5
  %48 = load i32, ptr %12, align 4
  call void @changeDependencyOnOwner(i32 noundef 2615, i32 noundef %48, i32 noundef %2) #5
  call void @llvm.lifetime.end.p0(i64 1, ptr nonnull %7) #5
  call void @llvm.lifetime.end.p0(i64 4, ptr nonnull %6) #5
  call void @llvm.lifetime.end.p0(i64 4, ptr nonnull %5) #5
  call void @llvm.lifetime.end.p0(i64 32, ptr nonnull %4) #5
  br label %49

49:                                               ; preds = %3, %43
  %50 = load ptr, ptr @object_access_hook, align 8
  %.not24 = icmp eq ptr %50, null
  br i1 %.not24, label %53, label %51

51:                                               ; preds = %49
  %52 = load i32, ptr %12, align 4
  call void @RunObjectPostAlterHook(i32 noundef 2615, i32 noundef %52, i32 noundef 0, i32 noundef 0, i1 noundef zeroext false) #5
  br label %53

53:                                               ; preds = %51, %49
  ret void
}